(dp0
S'since'
p1
F0.0007055503292568204
sS'chinese'
p2
F0.0007055503292568204
sS'maximum'
p3
F0.0007055503292568204
sS'caused'
p4
F0.00023518344308560678
sS'lack'
p5
F0.0007055503292568204
sS'focus'
p6
F0.00023518344308560678
sS'month'
p7
F0.0018814675446848542
sS'waterproof'
p8
F0.00023518344308560678
sS'gb'
p9
F0.0014111006585136407
sS'hanging'
p10
F0.0030573847601128882
sS'issues'
p11
F0.0035277516462841017
sS'requested'
p12
F0.0007055503292568204
sS'segment'
p13
F0.00023518344308560678
sS'icons'
p14
F0.0007055503292568204
sS'tv'
p15
F0.00023518344308560678
sS'flash'
p16
F0.0016462841015992475
sS'worth'
p17
F0.0011759172154280338
sS'redmi'
p18
F0.00023518344308560678
sS'supported'
p19
F0.0009407337723424271
sS'charge'
p20
F0.0016462841015992475
sS'whatsoever'
p21
F0.00023518344308560678
sS'scratch'
p22
F0.00023518344308560678
sS'recommended'
p23
F0.0009407337723424271
sS'friendly'
p24
F0.00023518344308560678
sS'sound'
p25
F0.004703668861712135
sS'smartphone'
p26
F0.00023518344308560678
sS'premium'
p27
F0.0009407337723424271
sS'returned'
p28
F0.0009407337723424271
sS'far'
p29
F0.0007055503292568204
sS'resistance'
p30
F0.00023518344308560678
sS'every'
p31
F0.0011759172154280338
sS'fall'
p32
F0.00023518344308560678
sS'sleek'
p33
F0.00023518344308560678
sS'condition'
p34
F0.0011759172154280338
sS'cool'
p35
F0.00023518344308560678
sS'entire'
p36
F0.00023518344308560678
sS'impressive'
p37
F0.00023518344308560678
sS'cable'
p38
F0.00023518344308560678
sS'level'
p39
F0.00023518344308560678
sS'sensor'
p40
F0.0011759172154280338
sS'button'
p41
F0.0009407337723424271
sS'large'
p42
F0.00023518344308560678
sS'item'
p43
F0.0007055503292568204
sS'quick'
p44
F0.00023518344308560678
sS'scratches'
p45
F0.00023518344308560678
sS'htc'
p46
F0.00023518344308560678
sS'regret'
p47
F0.0007055503292568204
sS'phones'
p48
F0.0009407337723424271
sS'skin'
p49
F0.0007055503292568204
sS'installing'
p50
F0.0007055503292568204
sS'rate'
p51
F0.00023518344308560678
sS'cost'
p52
F0.0007055503292568204
sS'design'
p53
F0.00023518344308560678
sS'displays'
p54
F0.00023518344308560678
sS'uncomfortable'
p55
F0.0007055503292568204
sS'click'
p56
F0.00023518344308560678
sS'headset'
p57
F0.0009407337723424271
sS'appear'
p58
F0.00023518344308560678
sS'giving'
p59
F0.00023518344308560678
sS'sun'
p60
F0.0009407337723424271
sS'specification'
p61
F0.0009407337723424271
sS'stunning'
p62
F0.00023518344308560678
sS'supplied'
p63
F0.0007055503292568204
sS'access'
p64
F0.00023518344308560678
sS'version'
p65
F0.0007055503292568204
sS'above'
p66
F0.00023518344308560678
sS'new'
p67
F0.0011759172154280338
sS'net'
p68
F0.0014111006585136407
sS'ever'
p69
F0.00023518344308560678
sS'thin'
p70
F0.0007055503292568204
sS'body'
p71
F0.00023518344308560678
sS'full'
p72
F0.0011759172154280338
sS'led'
p73
F0.00023518344308560678
sS'never'
p74
F0.0007055503292568204
sS'hours'
p75
F0.0025870178739416747
sS'others'
p76
F0.0011759172154280338
sS'sexy'
p77
F0.00023518344308560678
sS'strong'
p78
F0.00023518344308560678
sS'irritating'
p79
F0.0009407337723424271
sS'softwares'
p80
F0.00023518344308560678
sS'box'
p81
F0.0021166509877704608
sS'solid'
p82
F0.00023518344308560678
sS'great'
p83
F0.0011759172154280338
sS'multiwindow'
p84
F0.00023518344308560678
sS'micromax'
p85
F0.0009407337723424271
sS'brilliant'
p86
F0.00023518344308560678
sS'octa'
p87
F0.00023518344308560678
sS'changed'
p88
F0.00023518344308560678
sS'reason'
p89
F0.0007055503292568204
sS'experience'
p90
F0.0011759172154280338
sS'pics'
p91
F0.00023518344308560678
sS'products'
p92
F0.00023518344308560678
sS'makes'
p93
F0.0009407337723424271
sS'honor'
p94
F0.00023518344308560678
sS'thats'
p95
F0.00023518344308560678
sS'fantastic'
p96
F0.00023518344308560678
sS'love'
p97
F0.0007055503292568204
sS'lasts'
p98
F0.00023518344308560678
sS'extra'
p99
F0.00023518344308560678
sS'suddenly'
p100
F0.0007055503292568204
sS'app'
p101
F0.0023518344308560675
sS'worthy'
p102
F0.00023518344308560678
sS'while'
p103
F0.006349952963311383
sS'highly'
p104
F0.0007055503292568204
sS'expect'
p105
F0.00023518344308560678
sS'vivid'
p106
F0.00023518344308560678
sS'unhappy'
p107
F0.0007055503292568204
sS'market'
p108
F0.00023518344308560678
sS'cheating'
p109
F0.00023518344308560678
sS'takes'
p110
F0.0011759172154280338
sS'working'
p111
F0.008701787394167451
sS'remains'
p112
F0.0007055503292568204
sS'faint'
p113
F0.0007055503292568204
sS'next'
p114
F0.0007055503292568204
sS'comparing'
p115
F0.00023518344308560678
sS'camera'
p116
F0.017873941674506115
sS'call'
p117
F0.005644402634054563
sS'gorgeous'
p118
F0.00023518344308560678
sS'branded'
p119
F0.00023518344308560678
sS'until'
p120
F0.0007055503292568204
sS'minor'
p121
F0.00023518344308560678
sS'more'
p122
F0.0025870178739416747
sS'removable'
p123
F0.00023518344308560678
sS'started'
p124
F0.0018814675446848542
sS'becomes'
p125
F0.0007055503292568204
sS'company'
p126
F0.00023518344308560678
sS'under'
p127
F0.0009407337723424271
sS'glass'
p128
F0.0007055503292568204
sS'wifi'
p129
F0.0021166509877704608
sS'excellent'
p130
F0.00023518344308560678
sS'rare'
p131
F0.00023518344308560678
sS'hold'
p132
F0.0009407337723424271
sS'customer'
p133
F0.0007055503292568204
sS'keeping'
p134
F0.00023518344308560678
sS'mb'
p135
F0.0007055503292568204
sS'car'
p136
F0.0007055503292568204
sS'package'
p137
F0.00023518344308560678
sS'sucks'
p138
F0.0011759172154280338
sS'cant'
p139
F0.0030573847601128882
sS'spec'
p140
F0.00023518344308560678
sS'sudden'
p141
F0.0007055503292568204
sS'bugs'
p142
F0.0011759172154280338
sS'mp'
p143
F0.0014111006585136407
sS'cam'
p144
F0.00023518344308560678
sS'didnt'
p145
F0.0007055503292568204
sS'deg'
p146
F0.0007055503292568204
sS'beautiful'
p147
F0.00023518344308560678
sS'compare'
p148
F0.00023518344308560678
sS'earphone'
p149
F0.0007055503292568204
sS'processing'
p150
F0.0009407337723424271
sS'lock'
p151
F0.00023518344308560678
sS'awesome'
p152
F0.0007055503292568204
sS'slim'
p153
F0.00023518344308560678
sS'terrible'
p154
F0.0014111006585136407
sS'high'
p155
F0.0018814675446848542
sS'something'
p156
F0.0009407337723424271
sS'purchased'
p157
F0.0009407337723424271
sS'allowed'
p158
F0.0007055503292568204
sS'sharp'
p159
F0.00023518344308560678
sS'disliked'
p160
F0.0007055503292568204
sS'earpiece'
p161
F0.0007055503292568204
sS'worse'
p162
F0.0007055503292568204
sS'huge'
p163
F0.00023518344308560678
sS'needs'
p164
F0.0007055503292568204
sS'end'
p165
F0.0014111006585136407
sS'drained'
p166
F0.0007055503292568204
sS'thing'
p167
F0.0016462841015992475
sS'provide'
p168
F0.00023518344308560678
sS'six'
p169
F0.0007055503292568204
sS'feature'
p170
F0.0009407337723424271
sS'till'
p171
F0.0007055503292568204
sS'amazing'
p172
F0.00023518344308560678
sS'disappoint'
p173
F0.00023518344308560678
sS'charging'
p174
F0.004703668861712135
sS'sim'
p175
F0.0030573847601128882
sS'massive'
p176
F0.00023518344308560678
sS'upto'
p177
F0.0011759172154280338
sS'gaming'
p178
F0.00023518344308560678
sS'product'
p179
F0.00940733772342427
sS'unbeatable'
p180
F0.00023518344308560678
sS'okay'
p181
F0.0007055503292568204
sS'description'
p182
F0.00023518344308560678
sS'specifications'
p183
F0.00023518344308560678
sS'lag'
p184
F0.0007055503292568204
sS'space'
p185
F0.0014111006585136407
sS'different'
p186
F0.00023518344308560678
sS'connectivity'
p187
F0.0007055503292568204
sS'wrong'
p188
F0.0007055503292568204
sS'lighting'
p189
F0.0007055503292568204
sS'coming'
p190
F0.0011759172154280338
sS'fits'
p191
F0.00023518344308560678
sS'such'
p192
F0.0007055503292568204
sS'truly'
p193
F0.00023518344308560678
sS'guys'
p194
F0.00023518344308560678
sS'response'
p195
F0.0011759172154280338
sS'times'
p196
F0.003998118532455315
sS'purchase'
p197
F0.0016462841015992475
sS'short'
p198
F0.00023518344308560678
sS'defective'
p199
F0.0009407337723424271
sS'light'
p200
F0.0023518344308560675
sS'feels'
p201
F0.00023518344308560678
sS'st'
p202
F0.0009407337723424271
sS'switch'
p203
F0.0009407337723424271
sS'allow'
p204
F0.0007055503292568204
sS'keeps'
p205
F0.0009407337723424271
sS'worst'
p206
F0.0051740357478833494
sS'software'
p207
F0.0018814675446848542
sS'order'
p208
F0.0007055503292568204
sS'talk'
p209
F0.0009407337723424271
sS'sd'
p210
F0.0021166509877704608
sS'indeed'
p211
F0.00023518344308560678
sS'using'
p212
F0.00658513640639699
sS'move'
p213
F0.0014111006585136407
sS'zen'
p214
F0.00023518344308560678
sS'satisfied'
p215
F0.0014111006585136407
sS'damage'
p216
F0.00023518344308560678
sS'isnt'
p217
F0.0009407337723424271
sS'through'
p218
F0.00023518344308560678
sS'looks'
p219
F0.0014111006585136407
sS'mentioned'
p220
F0.0009407337723424271
sS'still'
p221
F0.0014111006585136407
sS'before'
p222
F0.0007055503292568204
sS'perfect'
p223
F0.00023518344308560678
sS'thank'
p224
F0.00023518344308560678
sS'fit'
p225
F0.0009407337723424271
sS'directional'
p226
F0.0007055503292568204
sS'expectations'
p227
F0.0011759172154280338
sS'actually'
p228
F0.00023518344308560678
sS'better'
p229
F0.0023518344308560675
sS'whether'
p230
F0.00023518344308560678
sS'detected'
p231
F0.00023518344308560678
sS'whole'
p232
F0.00023518344308560678
sS'main'
p233
F0.0009407337723424271
sS'pixel'
p234
F0.00023518344308560678
sS'good'
p235
F0.013640639698965193
sS'crash'
p236
F0.00023518344308560678
sS'auto'
p237
F0.0007055503292568204
sS'material'
p238
F0.00023518344308560678
sS'hands'
p239
F0.00023518344308560678
sS'front'
p240
F0.0021166509877704608
sS'handy'
p241
F0.00023518344308560678
sS'bigger'
p242
F0.00023518344308560678
sS'wont'
p243
F0.0009407337723424271
sS'easily'
p244
F0.00023518344308560678
sS'several'
p245
F0.00023518344308560678
sS'brightness'
p246
F0.0011759172154280338
sS'always'
p247
F0.0016462841015992475
sS'drop'
p248
F0.0009407337723424271
sS'someone'
p249
F0.0007055503292568204
sS'stopped'
p250
F0.0007055503292568204
sS'mode'
p251
F0.0007055503292568204
sS'each'
p252
F0.00023518344308560678
sS'found'
p253
F0.0016462841015992475
sS'gui'
p254
F0.00023518344308560678
sS'flipkart'
p255
F0.00023518344308560678
sS'heavy'
p256
F0.0011759172154280338
sS'recommend'
p257
F0.00023518344308560678
sS'weighted'
p258
F0.00023518344308560678
sS'another'
p259
F0.0007055503292568204
sS'weight'
p260
F0.00023518344308560678
sS'yellowish'
p261
F0.0007055503292568204
sS'generation'
p262
F0.00023518344308560678
sS'hard'
p263
F0.0007055503292568204
sS'used'
p264
F0.0014111006585136407
sS'unlock'
p265
F0.00023518344308560678
sS'oil'
p266
F0.00023518344308560678
sS'hanged'
p267
F0.0011759172154280338
sS'operation'
p268
F0.00023518344308560678
sS'really'
p269
F0.0021166509877704608
sS'lovers'
p270
F0.00023518344308560678
sS'network'
p271
F0.0035277516462841017
sS'solved'
p272
F0.0007055503292568204
sS'open'
p273
F0.00023518344308560678
sS'tried'
p274
F0.0018814675446848542
sS'cameras'
p275
F0.0009407337723424271
sS'reboot'
p276
F0.0009407337723424271
sS'looking'
p277
F0.00023518344308560678
sS'internet'
p278
F0.0023518344308560675
sS'print'
p279
F0.0009407337723424271
sS'got'
p280
F0.004468485418626529
sS'receiving'
p281
F0.0009407337723424271
sS'issue'
p282
F0.003998118532455315
sS'pathetic'
p283
F0.0011759172154280338
sS'dirt'
p284
F0.00023518344308560678
sS'little'
p285
F0.0016462841015992475
sS'free'
p286
F0.00023518344308560678
sS'quite'
p287
F0.00023518344308560678
sS'small'
p288
F0.0007055503292568204
sS'completely'
p289
F0.0007055503292568204
sS'management'
p290
F0.00023518344308560678
sS'put'
p291
F0.0014111006585136407
sS'wanted'
p292
F0.0009407337723424271
sS'lollipop'
p293
F0.0009407337723424271
sS'card'
p294
F0.0025870178739416747
sS'care'
p295
F0.0009407337723424271
sS'bloatware'
p296
F0.0007055503292568204
sS'service'
p297
F0.0021166509877704608
sS'applications'
p298
F0.0009407337723424271
sS'standby'
p299
F0.00023518344308560678
sS'starts'
p300
F0.0009407337723424271
sS'headphones'
p301
F0.00023518344308560678
sS'days'
p302
F0.0035277516462841017
sS'keep'
p303
F0.00023518344308560678
sS'terribly'
p304
F0.0007055503292568204
sS'camera-'
p305
F0.00023518344308560678
sS'transfer'
p306
F0.0007055503292568204
sS'hence'
p307
F0.0007055503292568204
sS'today'
p308
F0.0009407337723424271
sS'loud'
p309
F0.0007055503292568204
sS'frequent'
p310
F0.0011759172154280338
sS'purpose'
p311
F0.0007055503292568204
sS'laggy'
p312
F0.0007055503292568204
sS'major'
p313
F0.0009407337723424271
sS'already'
p314
F0.0007055503292568204
sS'features'
p315
F0.0011759172154280338
sS'ignored'
p316
F0.0007055503292568204
sS'feel'
p317
F0.0011759172154280338
sS'fancy'
p318
F0.00023518344308560678
sS'lol'
p319
F0.00023518344308560678
sS'customization'
p320
F0.00023518344308560678
sS'overheating'
p321
F0.0011759172154280338
sS'clarity'
p322
F0.0016462841015992475
sS'miss'
p323
F0.0007055503292568204
sS'size'
p324
F0.00023518344308560678
sS'given'
p325
F0.00023518344308560678
sS'long'
p326
F0.00023518344308560678
sS'temperature'
p327
F0.0007055503292568204
sS'octacore'
p328
F0.00023518344308560678
sS'data'
p329
F0.0016462841015992475
sS'top'
p330
F0.0011759172154280338
sS'system'
p331
F0.0007055503292568204
sS'hangs'
p332
F0.0030573847601128882
sS'plastic'
p333
F0.0011759172154280338
sS'needed'
p334
F0.00023518344308560678
sS'wonderful'
p335
F0.00023518344308560678
sS'too'
p336
F0.007761053621825023
sS'white'
p337
F0.0007055503292568204
sS'perfectly'
p338
F0.00023518344308560678
sS'sensitivity'
p339
F0.00023518344308560678
sS'mobiles'
p340
F0.0009407337723424271
sS'headache'
p341
F0.0007055503292568204
sS'option'
p342
F0.0023518344308560675
sS'fastly'
p343
F0.0009407337723424271
sS'serve'
p344
F0.0007055503292568204
sS'viewing'
p345
F0.00023518344308560678
sS'part'
p346
F0.00023518344308560678
sS'focusing'
p347
F0.00023518344308560678
sS'off'
p348
F0.0025870178739416747
sS'loved'
p349
F0.00023518344308560678
sS'kind'
p350
F0.00023518344308560678
sS'last'
p351
F0.0018814675446848542
sS'double'
p352
F0.00023518344308560678
sS'second'
p353
F0.0009407337723424271
sS'packed'
p354
F0.00023518344308560678
sS'recording'
p355
F0.0007055503292568204
sS'fabulous'
p356
F0.00023518344308560678
sS'moto'
p357
F0.00023518344308560678
sS'glossy'
p358
F0.0009407337723424271
sS'reproduction'
p359
F0.00023518344308560678
sS'were'
p360
F0.0009407337723424271
sS'video'
p361
F0.0014111006585136407
sS'feeling'
p362
F0.00023518344308560678
sS'outstanding'
p363
F0.00023518344308560678
sS'half'
p364
F0.00023518344308560678
sS'ram'
p365
F0.0016462841015992475
sS'few'
p366
F0.0016462841015992475
sS'comfortable'
p367
F0.00023518344308560678
sS'talking'
p368
F0.0007055503292568204
sS'need'
p369
F0.0018814675446848542
sS'curved'
p370
F0.00023518344308560678
sS'clearly'
p371
F0.0011759172154280338
sS'unbearable'
p372
F0.0011759172154280338
sS'microphone'
p373
F0.0011759172154280338
sS'nights'
p374
F0.00023518344308560678
sS'genuine'
p375
F0.00023518344308560678
sS'built'
p376
F0.0007055503292568204
sS'efficient'
p377
F0.00023518344308560678
sS'convenient'
p378
F0.00023518344308560678
sS'mic'
p379
F0.0009407337723424271
sS'storage'
p380
F0.0011759172154280338
sS'able'
p381
F0.0021166509877704608
sS'specs'
p382
F0.00023518344308560678
sS'fitting'
p383
F0.00023518344308560678
sS'internal'
p384
F0.0016462841015992475
sS'sims'
p385
F0.00023518344308560678
sS'build'
p386
F0.0014111006585136407
sS'online'
p387
F0.0007055503292568204
sS'performance'
p388
F0.0035277516462841017
sS'strengths'
p389
F0.0007055503292568204
sS'play'
p390
F0.0016462841015992475
sS'experienced'
p391
F0.00023518344308560678
sS'unless'
p392
F0.0007055503292568204
sS'centre'
p393
F0.0009407337723424271
sS'price'
p394
F0.0025870178739416747
sS'lagging'
p395
F0.0007055503292568204
sS'device'
p396
F0.0023518344308560675
sS'extremely'
p397
F0.0009407337723424271
sS'class'
p398
F0.00023518344308560678
sS'volume'
p399
F0.0025870178739416747
sS'especially'
p400
F0.0007055503292568204
sS'sturdy'
p401
F0.00023518344308560678
sS'mobile'
p402
F0.007761053621825023
sS'clear'
p403
F0.0011759172154280338
sS'side'
p404
F0.0014111006585136407
sS'cover'
p405
F0.0007055503292568204
sS'playing'
p406
F0.0021166509877704608
sS'definitely'
p407
F0.00023518344308560678
sS'asus'
p408
F0.00023518344308560678
sS'notch'
p409
F0.00023518344308560678
sS'came'
p410
F0.0011759172154280338
sS'impression'
p411
F0.00023518344308560678
sS'particularly'
p412
F0.0007055503292568204
sS'rings'
p413
F0.0011759172154280338
sS'indoor'
p414
F0.0009407337723424271
sS'cheap'
p415
F0.003292568203198495
sS'wasted'
p416
F0.0007055503292568204
sS'bright'
p417
F0.0007055503292568204
sS'top-notch'
p418
F0.00023518344308560678
sS'fine'
p419
F0.0014111006585136407
sS'find'
p420
F0.0007055503292568204
sS'slot'
p421
F0.0007055503292568204
sS'current'
p422
F0.00023518344308560678
sS'slow'
p423
F0.004938852304797742
sS'music'
p424
F0.0007055503292568204
sS'hrs'
p425
F0.00023518344308560678
sS'should'
p426
F0.00023518344308560678
sS'buttons'
p427
F0.0009407337723424271
sS'going'
p428
F0.00023518344308560678
sS'buying'
p429
F0.0016462841015992475
sS'pretty'
p430
F0.0011759172154280338
sS'money'
p431
F0.003292568203198495
sS'touchscreen'
p432
F0.0009407337723424271
sS'handle'
p433
F0.00023518344308560678
sS'touch'
p434
F0.0070555032925682035
sS'exceptional'
p435
F0.00023518344308560678
sS'horrible'
p436
F0.0011759172154280338
sS'overall'
p437
F0.00023518344308560678
sS'expectation'
p438
F0.00023518344308560678
sS'cheaper'
p439
F0.0007055503292568204
sS'amazon'
p440
F0.0007055503292568204
sS'cannot'
p441
F0.0009407337723424271
sS'rest'
p442
F0.0007055503292568204
sS'during'
p443
F0.0025870178739416747
sS'installed'
p444
F0.0007055503292568204
sS'restart'
p445
F0.0009407337723424271
sS'secondary'
p446
F0.00023518344308560678
sS'runs'
p447
F0.00023518344308560678
sS'settings'
p448
F0.00023518344308560678
sS'nicely'
p449
F0.00023518344308560678
sS'calling'
p450
F0.0009407337723424271
sS'inbuilt'
p451
F0.0007055503292568204
sS'twice'
p452
F0.0009407337723424271
sS'bad'
p453
F0.011759172154280339
sS'shots'
p454
F0.00023518344308560678
sS'told'
p455
F0.0007055503292568204
sS'ears'
p456
F0.0007055503292568204
sS'bulky'
p457
F0.0007055503292568204
sS'available'
p458
F0.0021166509877704608
sS'set'
p459
F0.0011759172154280338
sS'frame'
p460
F0.00023518344308560678
sS'blurred'
p461
F0.0014111006585136407
sS'responsive'
p462
F0.00023518344308560678
sS'seal'
p463
F0.0007055503292568204
sS'close'
p464
F0.00023518344308560678
sS'best'
p465
F0.0007055503292568204
sS'concern'
p466
F0.00023518344308560678
sS'loudspeaker'
p467
F0.00023518344308560678
sS'capacity'
p468
F0.00023518344308560678
sS'lots'
p469
F0.0007055503292568204
sS'pictures'
p470
F0.0021166509877704608
sS'user'
p471
F0.0007055503292568204
sS'please'
p472
F0.0021166509877704608
sS'below'
p473
F0.0007055503292568204
sS'superb'
p474
F0.00023518344308560678
sS'colours'
p475
F0.0007055503292568204
sS'enough'
p476
F0.00023518344308560678
sS'unable'
p477
F0.0007055503292568204
sS'finger'
p478
F0.0009407337723424271
sS'between'
p479
F0.0007055503292568204
sS'conditions'
p480
F0.0011759172154280338
sS'bought'
p481
F0.0009407337723424271
sS'affordable'
p482
F0.00023518344308560678
sS'gives'
p483
F0.00023518344308560678
sS'vertical'
p484
F0.0007055503292568204
sS'initially'
p485
F0.00023518344308560678
sS'screen'
p486
F0.00799623706491063
sS'weak'
p487
F0.0009407337723424271
sS'however'
p488
F0.0011759172154280338
sS'interface'
p489
F0.00023518344308560678
sS'useless'
p490
F0.0007055503292568204
sS'configuration'
p491
F0.00023518344308560678
sS'faced'
p492
F0.00023518344308560678
sS'both'
p493
F0.0016462841015992475
sS'providing'
p494
F0.00023518344308560678
sS'improved'
p495
F0.00023518344308560678
sS'resistant'
p496
F0.00023518344308560678
sS'many'
p497
F0.0025870178739416747
sS'barely'
p498
F0.0007055503292568204
sS'according'
p499
F0.00023518344308560678
sS'sensitive'
p500
F0.00023518344308560678
sS'games'
p501
F0.0021166509877704608
sS'disappointment'
p502
F0.0009407337723424271
sS'protector'
p503
F0.00023518344308560678
sS'sluggish'
p504
F0.0007055503292568204
sS'comes'
p505
F0.00023518344308560678
sS'upgraded'
p506
F0.00023518344308560678
sS'liked'
p507
F0.00023518344308560678
sS'tough'
p508
F0.00023518344308560678
sS'point'
p509
F0.00023518344308560678
sS'battery'
p510
F0.01810912511759172
sS'quality'
p511
F0.01669802445907808
sS'simply'
p512
F0.00023518344308560678
sS'though'
p513
F0.0014111006585136407
sS'decent'
p514
F0.00023518344308560678
sS'due'
p515
F0.0016462841015992475
sS'been'
p516
F0.0007055503292568204
sS'mark'
p517
F0.0009407337723424271
sS'much'
p518
F0.0042333019755409216
sS'dont'
p519
F0.005879586077140169
sS'expected'
p520
F0.0018814675446848542
sS'wait'
p521
F0.0007055503292568204
sS'hardly'
p522
F0.00023518344308560678
sS'location'
p523
F0.0014111006585136407
sS'compromises'
p524
F0.00023518344308560678
sS'received'
p525
F0.0009407337723424271
sS'offered'
p526
F0.00023518344308560678
sS'otg'
p527
F0.0007055503292568204
sS'photos'
p528
F0.0007055503292568204
sS'wake'
p529
F0.00023518344308560678
sS'angles'
p530
F0.00023518344308560678
sS'graphics'
p531
F0.00023518344308560678
sS'installation'
p532
F0.0007055503292568204
sS'worked'
p533
F0.0007055503292568204
sS'those'
p534
F0.00023518344308560678
sS'case'
p535
F0.00023518344308560678
sS'save'
p536
F0.0007055503292568204
sS'launcher'
p537
F0.00023518344308560678
sS'selfie'
p538
F0.00023518344308560678
sS'grainy'
p539
F0.0009407337723424271
sS'budget'
p540
F0.00023518344308560678
sS'value'
p541
F0.0016462841015992475
sS'air'
p542
F0.0007055503292568204
sS'near'
p543
F0.0014111006585136407
sS'cracked'
p544
F0.0011759172154280338
sS'voice'
p545
F0.0035277516462841017
sS'guide'
p546
F0.0009407337723424271
sS'theres'
p547
F0.0007055503292568204
sS'aluminium'
p548
F0.00023518344308560678
sS'manually'
p549
F0.0007055503292568204
sS'almost'
p550
F0.00023518344308560678
sS'coating'
p551
F0.00023518344308560678
sS'accessories'
p552
F0.00023518344308560678
sS'heating'
p553
F0.009642521166509878
sS'hardware'
p554
F0.00023518344308560678
sS'middle'
p555
F0.0007055503292568204
sS'draining'
p556
F0.0021166509877704608
sS'itself'
p557
F0.0009407337723424271
sS'im'
p558
F0.00023518344308560678
sS'dual'
p559
F0.00023518344308560678
sS'sar'
p560
F0.0009407337723424271
sS'ready'
p561
F0.0009407337723424271
sS'return'
p562
F0.0025870178739416747
sS'damaged'
p563
F0.0007055503292568204
sS'descent'
p564
F0.00023518344308560678
sS'pay'
p565
F0.0007055503292568204
sS'make'
p566
F0.0009407337723424271
sS'same'
p567
F0.00023518344308560678
sS'drawback'
p568
F0.00023518344308560678
sS'speaker'
p569
F0.003292568203198495
sS'waste'
p570
F0.0023518344308560675
sS'inch'
p571
F0.00023518344308560678
sS'android'
p572
F0.0018814675446848542
sS'gets'
p573
F0.0042333019755409216
sS'difficult'
p574
F0.0009407337723424271
sS'week'
p575
F0.00023518344308560678
sS'finish'
p576
F0.0009407337723424271
sS'hang'
p577
F0.0025870178739416747
sS'speakers'
p578
F0.0007055503292568204
sS'hand'
p579
F0.0011759172154280338
sS'average'
p580
F0.0037629350893697085
sS'running'
p581
F0.00023518344308560678
sS'edges'
p582
F0.00023518344308560678
sS'delicate'
p583
F0.0007055503292568204
sS'angle'
p584
F0.0007055503292568204
sS'strength'
p585
F0.0009407337723424271
sS'butter'
p586
F0.00023518344308560678
sS'drain'
p587
F0.0014111006585136407
sS'kept'
p588
F0.0007055503292568204
sS'center'
p589
F0.0007055503292568204
sS'charges'
p590
F0.00023518344308560678
sS'charger'
p591
F0.0028222013170272815
sS'colour'
p592
F0.00023518344308560678
sS'lcd'
p593
F0.00023518344308560678
sS'person'
p594
F0.0007055503292568204
sS'severe'
p595
F0.0007055503292568204
sS'without'
p596
F0.0011759172154280338
sS'very'
p597
F0.02539981185324553
sS'claims'
p598
F0.0007055503292568204
sS'model'
p599
F0.00023518344308560678
sS'audio'
p600
F0.0014111006585136407
sS'amazed'
p601
F0.00023518344308560678
sS'charged'
p602
F0.0009407337723424271
sS'rocker'
p603
F0.00023518344308560678
sS'outdoor'
p604
F0.00023518344308560678
sS'excessive'
p605
F0.0007055503292568204
sS'less'
p606
F0.0009407337723424271
sS'captures'
p607
F0.00023518344308560678
sS'proximity'
p608
F0.0007055503292568204
sS'fingerprint'
p609
F0.00023518344308560678
sS'competitive'
p610
F0.00023518344308560678
sS'not'
p611
F0.03504233301975541
sS'thanks'
p612
F0.00023518344308560678
sS'immediately'
p613
F0.0007055503292568204
sS'switched'
p614
F0.0009407337723424271
sS'useful'
p615
F0.00023518344308560678
sS'speed'
p616
F0.0014111006585136407
sS'coolpad'
p617
F0.0016462841015992475
sS'vibration'
p618
F0.00023518344308560678
sS'seems'
p619
F0.00023518344308560678
sS'had'
p620
F0.0014111006585136407
sS'except'
p621
F0.00023518344308560678
sS'signals'
p622
F0.0009407337723424271
sS'attractive'
p623
F0.00023518344308560678
sS'easy'
p624
F0.00023518344308560678
sS'crack'
p625
F0.00023518344308560678
sS'usage'
p626
F0.0016462841015992475
sS'has'
p627
F0.0030573847601128882
sS'remaining'
p628
F0.00023518344308560678
sS'smart'
p629
F0.0009407337723424271
sS'take'
p630
F0.0016462841015992475
sS'grip'
p631
F0.00023518344308560678
sS'customers'
p632
F0.00023518344308560678
sS'around'
p633
F0.0007055503292568204
sS'big'
p634
F0.0016462841015992475
sS'showing'
p635
F0.0009407337723424271
sS'dark'
p636
F0.0007055503292568204
sS'game'
p637
F0.0014111006585136407
sS'appearing'
p638
F0.0007055503292568204
sS'bit'
p639
F0.0007055503292568204
sS'glitches'
p640
F0.00023518344308560678
sS'disappointed'
p641
F0.0030573847601128882
sS'rear'
p642
F0.0023518344308560675
sS'apart'
p643
F0.0014111006585136407
sS'crisp'
p644
F0.00023518344308560678
sS'like'
p645
F0.0037629350893697085
sS'gift'
p646
F0.0007055503292568204
sS'vibrant'
p647
F0.00023518344308560678
sS'signal'
p648
F0.0018814675446848542
sS'zoom'
p649
F0.00023518344308560678
sS'facing'
p650
F0.0014111006585136407
sS'either'
p651
F0.00023518344308560678
sS'flickering'
p652
F0.0007055503292568204
sS'fully'
p653
F0.0007055503292568204
sS'output'
p654
F0.0007055503292568204
sS'works'
p655
F0.0007055503292568204
sS'soft'
p656
F0.0007055503292568204
sS'audible'
p657
F0.0009407337723424271
sS'replacement'
p658
F0.0016462841015992475
sS'satisfactory'
p659
F0.00023518344308560678
sS'google'
p660
F0.00023518344308560678
sS'old'
p661
F0.0009407337723424271
sS'deal'
p662
F0.00023518344308560678
sS'people'
p663
F0.0014111006585136407
sS'absolutely'
p664
F0.00023518344308560678
sS'dead'
p665
F0.0007055503292568204
sS'tempered'
p666
F0.00023518344308560678
sS'daylight'
p667
F0.0007055503292568204
sS'palm'
p668
F0.00023518344308560678
sS'specified'
p669
F0.00023518344308560678
sS'images'
p670
F0.0011759172154280338
sS'home'
p671
F0.0007055503292568204
sS'provided'
p672
F0.00023518344308560678
sS'bottom'
p673
F0.0009407337723424271
sS'decision'
p674
F0.00023518344308560678
sS'normal'
p675
F0.0023518344308560675
sS'per'
p676
F0.0014111006585136407
sS'everything'
p677
F0.00023518344308560678
sS'does'
p678
F0.0025870178739416747
sS'connecting'
p679
F0.0014111006585136407
sS'moderate'
p680
F0.00023518344308560678
sS'blurry'
p681
F0.0011759172154280338
sS'core'
p682
F0.00023518344308560678
sS'particular'
p683
F0.00023518344308560678
sS'run'
p684
F0.00023518344308560678
sS'power'
p685
F0.00023518344308560678
sS'seconds'
p686
F0.0007055503292568204
sS'night'
p687
F0.0014111006585136407
sS'broken'
p688
F0.0007055503292568204
sS'although'
p689
F0.0007055503292568204
sS'stylish'
p690
F0.00023518344308560678
sS'super'
p691
F0.00023518344308560678
sS'panel'
p692
F0.0009407337723424271
sS'ok'
p693
F0.0014111006585136407
sS'anything'
p694
F0.0009407337723424271
sS'getting'
p695
F0.004938852304797742
sS'goodmacro'
p696
F0.00023518344308560678
sS'months'
p697
F0.0016462841015992475
sS'hot'
p698
F0.0018814675446848542
sS'range'
p699
F0.00023518344308560678
sS'nothing'
p700
F0.00023518344308560678
sS'stand'
p701
F0.0007055503292568204
sS'lasting'
p702
F0.00023518344308560678
sS'backup'
p703
F0.0028222013170272815
sS'processor'
p704
F0.0011759172154280338
sS'automatically'
p705
F0.003998118532455315
sS'lags'
p706
F0.0011759172154280338
sS'repair'
p707
F0.0009407337723424271
sS'discharging'
p708
F0.0007055503292568204
sS'image'
p709
F0.0009407337723424271
sS'within'
p710
F0.003292568203198495
sS'headphone'
p711
F0.0007055503292568204
sS'down'
p712
F0.0016462841015992475
sS'complaints'
p713
F0.00023518344308560678
sS'guard'
p714
F0.00023518344308560678
sS'doesnt'
p715
F0.0014111006585136407
sS'heated'
p716
F0.004703668861712135
sS'quickly'
p717
F0.0021166509877704608
sS'behaving'
p718
F0.0007055503292568204
sS'area'
p719
F0.0007055503292568204
sS'amazingly'
p720
F0.00023518344308560678
sS'support'
p721
F0.0014111006585136407
sS'smoothly'
p722
F0.00023518344308560678
sS'apps'
p723
F0.0025870178739416747
sS'fast'
p724
F0.005644402634054563
sS'custom'
p725
F0.0007055503292568204
sS'window'
p726
F0.0007055503292568204
sS'low'
p727
F0.005644402634054563
sS'lot'
p728
F0.0028222013170272815
sS'biggest'
p729
F0.0009407337723424271
sS'damn'
p730
F0.00023518344308560678
sS'happy'
p731
F0.0009407337723424271
sS'function'
p732
F0.0007055503292568204
sS'buy'
p733
F0.003998118532455315
sS'complete'
p734
F0.0007055503292568204
sS'drains'
p735
F0.003292568203198495
sS'memory'
p736
F0.0021166509877704608
sS'buttery'
p737
F0.00023518344308560678
sS'delivery'
p738
F0.00023518344308560678
sS'heat'
p739
F0.0028222013170272815
sS'properly'
p740
F0.003292568203198495
sS'hear'
p741
F0.0016462841015992475
sS'multitasking'
p742
F0.00023518344308560678
sS'line'
p743
F0.0009407337723424271
sS'ear'
p744
F0.0011759172154280338
sS'true'
p745
F0.00023518344308560678
sS'dull'
p746
F0.0011759172154280338
sS'hd'
p747
F0.00023518344308560678
sS'longer'
p748
F0.00023518344308560678
sS'reset'
p749
F0.0007055503292568204
sS'made'
p750
F0.0009407337723424271
sS'wise'
p751
F0.00023518344308560678
sS'evident'
p752
F0.00023518344308560678
sS'default'
p753
F0.0011759172154280338
sS'smooth'
p754
F0.00023518344308560678
sS'flip'
p755
F0.00023518344308560678
sS'devices'
p756
F0.00023518344308560678
sS'par'
p757
F0.00023518344308560678
sS'crystal'
p758
F0.00023518344308560678
sS'back-up'
p759
F0.00023518344308560678
sS'ui'
p760
F0.0023518344308560675
sS'dirty'
p761
F0.00023518344308560678
sS'continuously'
p762
F0.00023518344308560678
sS'problem'
p763
F0.007525870178739417
sS'piece'
p764
F0.0009407337723424271
sS'minutes'
p765
F0.0021166509877704608
sS'display'
p766
F0.0035277516462841017
sS'connect'
p767
F0.0011759172154280338
sS'sometimes'
p768
F0.0014111006585136407
sS'scanner'
p769
F0.00023518344308560678
sS'metal'
p770
F0.00023518344308560678
sS'handset'
p771
F0.0009407337723424271
sS'pic'
p772
F0.0007055503292568204
sS'life'
p773
F0.0011759172154280338
sS'inr'
p774
F0.0009407337723424271
sS'water'
p775
F0.00023518344308560678
sS'proper'
p776
F0.0014111006585136407
sS'single'
p777
F0.0007055503292568204
sS'sometime'
p778
F0.00023518344308560678
sS'specially'
p779
F0.00023518344308560678
sS'again'
p780
F0.0011759172154280338
sS'compared'
p781
F0.0018814675446848542
sS'no'
p782
F0.01011288805268109
sS'nd'
p783
F0.00023518344308560678
sS'ringtone'
p784
F0.0014111006585136407
sS'application'
p785
F0.0011759172154280338
sS'setting'
p786
F0.0007055503292568204
sS'heats'
p787
F0.0025870178739416747
sS'clicks'
p788
F0.00023518344308560678
sS'nice'
p789
F0.00023518344308560678
sS'poor'
p790
F0.011053621825023518
sS'picture'
p791
F0.00023518344308560678
sS'star'
p792
F0.00023518344308560678
sS'why'
p793
F0.0007055503292568204
sS'felt'
p794
F0.0009407337723424271
sS'problems'
p795
F0.003292568203198495
sS'update'
p796
F0.0011759172154280338
sS'replace'
p797
F0.0009407337723424271
sS'brands'
p798
F0.0007055503292568204
sS'discharge'
p799
F0.0007055503292568204
sS'unlocking'
p800
F0.00023518344308560678
sS'earphones'
p801
F0.00023518344308560678
sS'opened'
p802
F0.00023518344308560678
sS'remote'
p803
F0.00023518344308560678
sS'faster'
p804
F0.0014111006585136407
sS'calls'
p805
F0.0025870178739416747
sS'phone'
p806
F0.036688617121354655
sS'contacts'
p807
F0.00023518344308560678
sS'compete'
p808
F0.00023518344308560678
sS'reception'
p809
F0.00023518344308560678
sS'time'
p810
F0.005879586077140169
sS'resolution'
p811
F0.0009407337723424271
sS'having'
p812
F0.0014111006585136407
s.