(dp0
S'since'
p1
F0.0008342022940563086
sS'chinese'
p2
F0.00020855057351407716
sS'maximum'
p3
F0.00020855057351407716
sS'caused'
p4
F0.0006256517205422315
sS'lack'
p5
F0.00020855057351407716
sS'focus'
p6
F0.00020855057351407716
sS'month'
p7
F0.00020855057351407716
sS'waterproof'
p8
F0.00020855057351407716
sS'gb'
p9
F0.0008342022940563086
sS'hanging'
p10
F0.0006256517205422315
sS'issues'
p11
F0.0022940563086548487
sS'requested'
p12
F0.00020855057351407716
sS'segment'
p13
F0.0006256517205422315
sS'icons'
p14
F0.00020855057351407716
sS'tv'
p15
F0.00020855057351407716
sS'flash'
p16
F0.0010427528675703858
sS'worth'
p17
F0.00145985401459854
sS'redmi'
p18
F0.0006256517205422315
sS'supported'
p19
F0.00020855057351407716
sS'charge'
p20
F0.00145985401459854
sS'whatsoever'
p21
F0.0008342022940563086
sS'scratch'
p22
F0.001251303441084463
sS'recommended'
p23
F0.00020855057351407716
sS'friendly'
p24
F0.00020855057351407716
sS'sound'
p25
F0.0072992700729927005
sS'smartphone'
p26
F0.00020855057351407716
sS'premium'
p27
F0.003962460896767466
sS'returned'
p28
F0.00020855057351407716
sS'far'
p29
F0.0020855057351407717
sS'resistance'
p30
F0.0006256517205422315
sS'every'
p31
F0.0008342022940563086
sS'fall'
p32
F0.0006256517205422315
sS'sleek'
p33
F0.0018769551616266945
sS'condition'
p34
F0.0006256517205422315
sS'cool'
p35
F0.002502606882168926
sS'entire'
p36
F0.0006256517205422315
sS'impressive'
p37
F0.0008342022940563086
sS'cable'
p38
F0.0006256517205422315
sS'level'
p39
F0.0006256517205422315
sS'sensor'
p40
F0.003753910323253389
sS'button'
p41
F0.0006256517205422315
sS'large'
p42
F0.0006256517205422315
sS'item'
p43
F0.00020855057351407716
sS'quick'
p44
F0.0018769551616266945
sS'scratches'
p45
F0.0006256517205422315
sS'htc'
p46
F0.00020855057351407716
sS'regret'
p47
F0.00020855057351407716
sS'phones'
p48
F0.002502606882168926
sS'skin'
p49
F0.00020855057351407716
sS'installing'
p50
F0.00020855057351407716
sS'rate'
p51
F0.00020855057351407716
sS'cost'
p52
F0.0006256517205422315
sS'design'
p53
F0.004171011470281543
sS'displays'
p54
F0.0006256517205422315
sS'uncomfortable'
p55
F0.00020855057351407716
sS'click'
p56
F0.00020855057351407716
sS'headset'
p57
F0.001251303441084463
sS'appear'
p58
F0.00020855057351407716
sS'giving'
p59
F0.0008342022940563086
sS'sun'
p60
F0.00020855057351407716
sS'specification'
p61
F0.00020855057351407716
sS'stunning'
p62
F0.0010427528675703858
sS'supplied'
p63
F0.00020855057351407716
sS'access'
p64
F0.0008342022940563086
sS'version'
p65
F0.0008342022940563086
sS'above'
p66
F0.0008342022940563086
sS'new'
p67
F0.00020855057351407716
sS'net'
p68
F0.00020855057351407716
sS'ever'
p69
F0.001251303441084463
sS'thin'
p70
F0.00020855057351407716
sS'body'
p71
F0.001251303441084463
sS'full'
p72
F0.0022940563086548487
sS'led'
p73
F0.0010427528675703858
sS'never'
p74
F0.0008342022940563086
sS'hours'
p75
F0.0006256517205422315
sS'others'
p76
F0.0008342022940563086
sS'sexy'
p77
F0.0006256517205422315
sS'strong'
p78
F0.0006256517205422315
sS'irritating'
p79
F0.00020855057351407716
sS'softwares'
p80
F0.0006256517205422315
sS'box'
p81
F0.00020855057351407716
sS'solid'
p82
F0.0006256517205422315
sS'great'
p83
F0.009384775808133473
sS'multiwindow'
p84
F0.0006256517205422315
sS'micromax'
p85
F0.00020855057351407716
sS'brilliant'
p86
F0.00145985401459854
sS'octa'
p87
F0.0008342022940563086
sS'changed'
p88
F0.00020855057351407716
sS'reason'
p89
F0.00020855057351407716
sS'experience'
p90
F0.0018769551616266945
sS'pics'
p91
F0.00020855057351407716
sS'products'
p92
F0.00020855057351407716
sS'makes'
p93
F0.0008342022940563086
sS'honor'
p94
F0.0006256517205422315
sS'thats'
p95
F0.00020855057351407716
sS'fantastic'
p96
F0.0008342022940563086
sS'love'
p97
F0.0008342022940563086
sS'lasts'
p98
F0.001251303441084463
sS'extra'
p99
F0.00020855057351407716
sS'suddenly'
p100
F0.00020855057351407716
sS'app'
p101
F0.0006256517205422315
sS'worthy'
p102
F0.0006256517205422315
sS'while'
p103
F0.0018769551616266945
sS'highly'
p104
F0.0006256517205422315
sS'expect'
p105
F0.0008342022940563086
sS'vivid'
p106
F0.0008342022940563086
sS'unhappy'
p107
F0.00020855057351407716
sS'market'
p108
F0.0006256517205422315
sS'cheating'
p109
F0.00020855057351407716
sS'takes'
p110
F0.0016684045881126173
sS'working'
p111
F0.0031282586027111575
sS'remains'
p112
F0.00020855057351407716
sS'faint'
p113
F0.00020855057351407716
sS'next'
p114
F0.00020855057351407716
sS'comparing'
p115
F0.0006256517205422315
sS'camera'
p116
F0.026068821689259645
sS'call'
p117
F0.003962460896767466
sS'gorgeous'
p118
F0.0010427528675703858
sS'branded'
p119
F0.0006256517205422315
sS'until'
p120
F0.00020855057351407716
sS'minor'
p121
F0.0008342022940563086
sS'more'
p122
F0.00291970802919708
sS'removable'
p123
F0.0006256517205422315
sS'started'
p124
F0.00020855057351407716
sS'becomes'
p125
F0.00020855057351407716
sS'company'
p126
F0.0006256517205422315
sS'under'
p127
F0.001251303441084463
sS'glass'
p128
F0.00145985401459854
sS'wifi'
p129
F0.0006256517205422315
sS'excellent'
p130
F0.00959332638164755
sS'rare'
p131
F0.0006256517205422315
sS'hold'
p132
F0.0020855057351407717
sS'customer'
p133
F0.00020855057351407716
sS'keeping'
p134
F0.0006256517205422315
sS'mb'
p135
F0.00020855057351407716
sS'car'
p136
F0.00020855057351407716
sS'package'
p137
F0.0008342022940563086
sS'sucks'
p138
F0.00020855057351407716
sS'cant'
p139
F0.0008342022940563086
sS'spec'
p140
F0.0006256517205422315
sS'sudden'
p141
F0.00020855057351407716
sS'bugs'
p142
F0.00020855057351407716
sS'mp'
p143
F0.0020855057351407717
sS'cam'
p144
F0.0010427528675703858
sS'didnt'
p145
F0.0006256517205422315
sS'deg'
p146
F0.00020855057351407716
sS'beautiful'
p147
F0.0008342022940563086
sS'compare'
p148
F0.0006256517205422315
sS'earphone'
p149
F0.00020855057351407716
sS'processing'
p150
F0.0010427528675703858
sS'lock'
p151
F0.0008342022940563086
sS'awesome'
p152
F0.011470281543274244
sS'slim'
p153
F0.0022940563086548487
sS'terrible'
p154
F0.00020855057351407716
sS'high'
p155
F0.00291970802919708
sS'something'
p156
F0.00020855057351407716
sS'purchased'
p157
F0.0006256517205422315
sS'allowed'
p158
F0.00020855057351407716
sS'sharp'
p159
F0.001251303441084463
sS'disliked'
p160
F0.00020855057351407716
sS'earpiece'
p161
F0.00020855057351407716
sS'worse'
p162
F0.00020855057351407716
sS'huge'
p163
F0.00020855057351407716
sS'needs'
p164
F0.00020855057351407716
sS'end'
p165
F0.001251303441084463
sS'drained'
p166
F0.00020855057351407716
sS'thing'
p167
F0.00145985401459854
sS'provide'
p168
F0.00020855057351407716
sS'six'
p169
F0.00020855057351407716
sS'feature'
p170
F0.0010427528675703858
sS'till'
p171
F0.0006256517205422315
sS'amazing'
p172
F0.002711157455683003
sS'disappoint'
p173
F0.0006256517205422315
sS'charging'
p174
F0.002711157455683003
sS'sim'
p175
F0.0008342022940563086
sS'massive'
p176
F0.0006256517205422315
sS'upto'
p177
F0.0008342022940563086
sS'gaming'
p178
F0.001251303441084463
sS'product'
p179
F0.0064650677789363925
sS'unbeatable'
p180
F0.0006256517205422315
sS'okay'
p181
F0.00020855057351407716
sS'description'
p182
F0.00020855057351407716
sS'specifications'
p183
F0.0008342022940563086
sS'lag'
p184
F0.0033368091762252345
sS'space'
p185
F0.00020855057351407716
sS'different'
p186
F0.00020855057351407716
sS'connectivity'
p187
F0.00145985401459854
sS'wrong'
p188
F0.00020855057351407716
sS'lighting'
p189
F0.00020855057351407716
sS'coming'
p190
F0.00020855057351407716
sS'fits'
p191
F0.00145985401459854
sS'such'
p192
F0.0006256517205422315
sS'truly'
p193
F0.0006256517205422315
sS'guys'
p194
F0.0008342022940563086
sS'response'
p195
F0.0010427528675703858
sS'times'
p196
F0.00020855057351407716
sS'purchase'
p197
F0.0008342022940563086
sS'short'
p198
F0.00020855057351407716
sS'defective'
p199
F0.00020855057351407716
sS'light'
p200
F0.005422314911366006
sS'feels'
p201
F0.0018769551616266945
sS'st'
p202
F0.00020855057351407716
sS'switch'
p203
F0.00020855057351407716
sS'allow'
p204
F0.00020855057351407716
sS'keeps'
p205
F0.00020855057351407716
sS'worst'
p206
F0.00020855057351407716
sS'software'
p207
F0.0008342022940563086
sS'order'
p208
F0.00020855057351407716
sS'talk'
p209
F0.00020855057351407716
sS'sd'
p210
F0.00020855057351407716
sS'indeed'
p211
F0.0006256517205422315
sS'using'
p212
F0.00291970802919708
sS'move'
p213
F0.00020855057351407716
sS'zen'
p214
F0.0006256517205422315
sS'satisfied'
p215
F0.0018769551616266945
sS'damage'
p216
F0.00020855057351407716
sS'isnt'
p217
F0.00020855057351407716
sS'through'
p218
F0.0006256517205422315
sS'looks'
p219
F0.005422314911366006
sS'mentioned'
p220
F0.00020855057351407716
sS'still'
p221
F0.00020855057351407716
sS'before'
p222
F0.00020855057351407716
sS'perfect'
p223
F0.0020855057351407717
sS'thank'
p224
F0.0006256517205422315
sS'fit'
p225
F0.0006256517205422315
sS'directional'
p226
F0.00020855057351407716
sS'expectations'
p227
F0.0008342022940563086
sS'actually'
p228
F0.0008342022940563086
sS'better'
p229
F0.004588112617309697
sS'whether'
p230
F0.00020855057351407716
sS'detected'
p231
F0.00020855057351407716
sS'whole'
p232
F0.00020855057351407716
sS'main'
p233
F0.00020855057351407716
sS'pixel'
p234
F0.0006256517205422315
sS'good'
p235
F0.06694473409801877
sS'crash'
p236
F0.00020855057351407716
sS'auto'
p237
F0.00020855057351407716
sS'material'
p238
F0.00020855057351407716
sS'hands'
p239
F0.00020855057351407716
sS'front'
p240
F0.006047966631908238
sS'handy'
p241
F0.00145985401459854
sS'bigger'
p242
F0.00020855057351407716
sS'wont'
p243
F0.00020855057351407716
sS'easily'
p244
F0.0008342022940563086
sS'several'
p245
F0.00020855057351407716
sS'brightness'
p246
F0.0010427528675703858
sS'always'
p247
F0.00020855057351407716
sS'drop'
p248
F0.00020855057351407716
sS'someone'
p249
F0.00020855057351407716
sS'stopped'
p250
F0.00020855057351407716
sS'mode'
p251
F0.0008342022940563086
sS'each'
p252
F0.0006256517205422315
sS'found'
p253
F0.0006256517205422315
sS'gui'
p254
F0.00020855057351407716
sS'flipkart'
p255
F0.00020855057351407716
sS'heavy'
p256
F0.0006256517205422315
sS'recommend'
p257
F0.0006256517205422315
sS'weighted'
p258
F0.0006256517205422315
sS'another'
p259
F0.00020855057351407716
sS'weight'
p260
F0.002711157455683003
sS'yellowish'
p261
F0.00020855057351407716
sS'generation'
p262
F0.00020855057351407716
sS'hard'
p263
F0.00020855057351407716
sS'used'
p264
F0.0018769551616266945
sS'unlock'
p265
F0.00020855057351407716
sS'oil'
p266
F0.0006256517205422315
sS'hanged'
p267
F0.00020855057351407716
sS'operation'
p268
F0.001251303441084463
sS'really'
p269
F0.005630865484880084
sS'lovers'
p270
F0.0006256517205422315
sS'network'
p271
F0.0010427528675703858
sS'solved'
p272
F0.00020855057351407716
sS'open'
p273
F0.0008342022940563086
sS'tried'
p274
F0.0006256517205422315
sS'cameras'
p275
F0.0010427528675703858
sS'reboot'
p276
F0.00020855057351407716
sS'looking'
p277
F0.0018769551616266945
sS'internet'
p278
F0.001251303441084463
sS'print'
p279
F0.002502606882168926
sS'got'
p280
F0.00145985401459854
sS'receiving'
p281
F0.00020855057351407716
sS'issue'
p282
F0.0010427528675703858
sS'pathetic'
p283
F0.00020855057351407716
sS'dirt'
p284
F0.0006256517205422315
sS'little'
p285
F0.0018769551616266945
sS'free'
p286
F0.00145985401459854
sS'quite'
p287
F0.0018769551616266945
sS'small'
p288
F0.00020855057351407716
sS'completely'
p289
F0.00020855057351407716
sS'management'
p290
F0.0006256517205422315
sS'put'
p291
F0.00020855057351407716
sS'wanted'
p292
F0.00020855057351407716
sS'lollipop'
p293
F0.00020855057351407716
sS'card'
p294
F0.0008342022940563086
sS'care'
p295
F0.0006256517205422315
sS'bloatware'
p296
F0.00020855057351407716
sS'service'
p297
F0.0010427528675703858
sS'applications'
p298
F0.0006256517205422315
sS'standby'
p299
F0.00020855057351407716
sS'starts'
p300
F0.00020855057351407716
sS'headphones'
p301
F0.0006256517205422315
sS'days'
p302
F0.0006256517205422315
sS'keep'
p303
F0.00020855057351407716
sS'terribly'
p304
F0.00020855057351407716
sS'camera-'
p305
F0.0006256517205422315
sS'transfer'
p306
F0.00020855057351407716
sS'hence'
p307
F0.00020855057351407716
sS'today'
p308
F0.00020855057351407716
sS'loud'
p309
F0.0022940563086548487
sS'frequent'
p310
F0.00020855057351407716
sS'purpose'
p311
F0.00020855057351407716
sS'laggy'
p312
F0.00020855057351407716
sS'major'
p313
F0.00020855057351407716
sS'already'
p314
F0.00020855057351407716
sS'features'
p315
F0.005005213764337852
sS'ignored'
p316
F0.00020855057351407716
sS'feel'
p317
F0.0022940563086548487
sS'fancy'
p318
F0.0006256517205422315
sS'lol'
p319
F0.0006256517205422315
sS'customization'
p320
F0.00020855057351407716
sS'overheating'
p321
F0.00020855057351407716
sS'clarity'
p322
F0.0022940563086548487
sS'miss'
p323
F0.00020855057351407716
sS'size'
p324
F0.001251303441084463
sS'given'
p325
F0.0006256517205422315
sS'long'
p326
F0.002711157455683003
sS'temperature'
p327
F0.00020855057351407716
sS'octacore'
p328
F0.0006256517205422315
sS'data'
p329
F0.00020855057351407716
sS'top'
p330
F0.0008342022940563086
sS'system'
p331
F0.00020855057351407716
sS'hangs'
p332
F0.0008342022940563086
sS'plastic'
p333
F0.00020855057351407716
sS'needed'
p334
F0.00020855057351407716
sS'wonderful'
p335
F0.00020855057351407716
sS'too'
p336
F0.0031282586027111575
sS'white'
p337
F0.0006256517205422315
sS'perfectly'
p338
F0.001251303441084463
sS'sensitivity'
p339
F0.0006256517205422315
sS'mobiles'
p340
F0.00020855057351407716
sS'headache'
p341
F0.00020855057351407716
sS'option'
p342
F0.001251303441084463
sS'fastly'
p343
F0.00020855057351407716
sS'serve'
p344
F0.00020855057351407716
sS'viewing'
p345
F0.001251303441084463
sS'part'
p346
F0.0006256517205422315
sS'focusing'
p347
F0.00020855057351407716
sS'off'
p348
F0.0006256517205422315
sS'loved'
p349
F0.001251303441084463
sS'kind'
p350
F0.0010427528675703858
sS'last'
p351
F0.0006256517205422315
sS'double'
p352
F0.0006256517205422315
sS'second'
p353
F0.0010427528675703858
sS'packed'
p354
F0.0008342022940563086
sS'recording'
p355
F0.0008342022940563086
sS'fabulous'
p356
F0.0006256517205422315
sS'moto'
p357
F0.00020855057351407716
sS'glossy'
p358
F0.00020855057351407716
sS'reproduction'
p359
F0.001251303441084463
sS'were'
p360
F0.0008342022940563086
sS'video'
p361
F0.002502606882168926
sS'feeling'
p362
F0.00020855057351407716
sS'outstanding'
p363
F0.0008342022940563086
sS'half'
p364
F0.0010427528675703858
sS'ram'
p365
F0.001251303441084463
sS'few'
p366
F0.00020855057351407716
sS'comfortable'
p367
F0.0010427528675703858
sS'talking'
p368
F0.00020855057351407716
sS'need'
p369
F0.0006256517205422315
sS'curved'
p370
F0.0006256517205422315
sS'clearly'
p371
F0.00020855057351407716
sS'unbearable'
p372
F0.00020855057351407716
sS'microphone'
p373
F0.00020855057351407716
sS'nights'
p374
F0.0006256517205422315
sS'genuine'
p375
F0.0006256517205422315
sS'built'
p376
F0.0018769551616266945
sS'efficient'
p377
F0.0006256517205422315
sS'convenient'
p378
F0.0006256517205422315
sS'mic'
p379
F0.00020855057351407716
sS'storage'
p380
F0.00020855057351407716
sS'able'
p381
F0.0006256517205422315
sS'specs'
p382
F0.0006256517205422315
sS'fitting'
p383
F0.0006256517205422315
sS'internal'
p384
F0.00020855057351407716
sS'sims'
p385
F0.0006256517205422315
sS'build'
p386
F0.004588112617309697
sS'online'
p387
F0.0006256517205422315
sS'performance'
p388
F0.009176225234619395
sS'strengths'
p389
F0.00020855057351407716
sS'play'
p390
F0.00020855057351407716
sS'experienced'
p391
F0.0006256517205422315
sS'unless'
p392
F0.00020855057351407716
sS'centre'
p393
F0.00020855057351407716
sS'price'
p394
F0.013138686131386862
sS'lagging'
p395
F0.0010427528675703858
sS'device'
p396
F0.002502606882168926
sS'extremely'
p397
F0.0018769551616266945
sS'class'
p398
F0.0008342022940563086
sS'volume'
p399
F0.00145985401459854
sS'especially'
p400
F0.0006256517205422315
sS'sturdy'
p401
F0.001251303441084463
sS'mobile'
p402
F0.008550573514077163
sS'clear'
p403
F0.003962460896767466
sS'side'
p404
F0.0010427528675703858
sS'cover'
p405
F0.002502606882168926
sS'playing'
p406
F0.0010427528675703858
sS'definitely'
p407
F0.0008342022940563086
sS'asus'
p408
F0.00020855057351407716
sS'notch'
p409
F0.0008342022940563086
sS'came'
p410
F0.00020855057351407716
sS'impression'
p411
F0.00020855057351407716
sS'particularly'
p412
F0.00020855057351407716
sS'rings'
p413
F0.00020855057351407716
sS'indoor'
p414
F0.00020855057351407716
sS'cheap'
p415
F0.00020855057351407716
sS'wasted'
p416
F0.00020855057351407716
sS'bright'
p417
F0.0008342022940563086
sS'top-notch'
p418
F0.0006256517205422315
sS'fine'
p419
F0.0016684045881126173
sS'find'
p420
F0.0008342022940563086
sS'slot'
p421
F0.0006256517205422315
sS'current'
p422
F0.0008342022940563086
sS'slow'
p423
F0.00020855057351407716
sS'music'
p424
F0.00145985401459854
sS'hrs'
p425
F0.00020855057351407716
sS'should'
p426
F0.0010427528675703858
sS'buttons'
p427
F0.00020855057351407716
sS'going'
p428
F0.00020855057351407716
sS'buying'
p429
F0.0010427528675703858
sS'pretty'
p430
F0.00145985401459854
sS'money'
p431
F0.0018769551616266945
sS'touchscreen'
p432
F0.00020855057351407716
sS'handle'
p433
F0.0006256517205422315
sS'touch'
p434
F0.008967674661105318
sS'exceptional'
p435
F0.00020855057351407716
sS'horrible'
p436
F0.00020855057351407716
sS'overall'
p437
F0.002502606882168926
sS'expectation'
p438
F0.0008342022940563086
sS'cheaper'
p439
F0.00020855057351407716
sS'amazon'
p440
F0.001251303441084463
sS'cannot'
p441
F0.0006256517205422315
sS'rest'
p442
F0.00020855057351407716
sS'during'
p443
F0.00020855057351407716
sS'installed'
p444
F0.00020855057351407716
sS'restart'
p445
F0.00020855057351407716
sS'secondary'
p446
F0.00020855057351407716
sS'runs'
p447
F0.0006256517205422315
sS'settings'
p448
F0.0006256517205422315
sS'nicely'
p449
F0.0006256517205422315
sS'calling'
p450
F0.0006256517205422315
sS'inbuilt'
p451
F0.0006256517205422315
sS'twice'
p452
F0.00020855057351407716
sS'bad'
p453
F0.0008342022940563086
sS'shots'
p454
F0.0016684045881126173
sS'told'
p455
F0.00020855057351407716
sS'ears'
p456
F0.00020855057351407716
sS'bulky'
p457
F0.00020855057351407716
sS'available'
p458
F0.0008342022940563086
sS'set'
p459
F0.00020855057351407716
sS'frame'
p460
F0.00020855057351407716
sS'blurred'
p461
F0.00020855057351407716
sS'responsive'
p462
F0.0008342022940563086
sS'seal'
p463
F0.00020855057351407716
sS'close'
p464
F0.0006256517205422315
sS'best'
p465
F0.005422314911366006
sS'concern'
p466
F0.00020855057351407716
sS'loudspeaker'
p467
F0.00020855057351407716
sS'capacity'
p468
F0.0006256517205422315
sS'lots'
p469
F0.0006256517205422315
sS'pictures'
p470
F0.001251303441084463
sS'user'
p471
F0.0006256517205422315
sS'please'
p472
F0.00020855057351407716
sS'below'
p473
F0.00020855057351407716
sS'superb'
p474
F0.006256517205422315
sS'colours'
p475
F0.0006256517205422315
sS'enough'
p476
F0.0008342022940563086
sS'unable'
p477
F0.00020855057351407716
sS'finger'
p478
F0.0031282586027111575
sS'between'
p479
F0.00020855057351407716
sS'conditions'
p480
F0.00020855057351407716
sS'bought'
p481
F0.00020855057351407716
sS'affordable'
p482
F0.0006256517205422315
sS'gives'
p483
F0.002502606882168926
sS'vertical'
p484
F0.00020855057351407716
sS'initially'
p485
F0.00020855057351407716
sS'screen'
p486
F0.007716371220020855
sS'weak'
p487
F0.00020855057351407716
sS'however'
p488
F0.0006256517205422315
sS'interface'
p489
F0.0008342022940563086
sS'useless'
p490
F0.00020855057351407716
sS'configuration'
p491
F0.0006256517205422315
sS'faced'
p492
F0.00020855057351407716
sS'both'
p493
F0.0022940563086548487
sS'providing'
p494
F0.0008342022940563086
sS'improved'
p495
F0.00020855057351407716
sS'resistant'
p496
F0.0008342022940563086
sS'many'
p497
F0.00020855057351407716
sS'barely'
p498
F0.00020855057351407716
sS'according'
p499
F0.0010427528675703858
sS'sensitive'
p500
F0.00020855057351407716
sS'games'
p501
F0.0018769551616266945
sS'disappointment'
p502
F0.00020855057351407716
sS'protector'
p503
F0.00020855057351407716
sS'sluggish'
p504
F0.00020855057351407716
sS'comes'
p505
F0.0018769551616266945
sS'upgraded'
p506
F0.00020855057351407716
sS'liked'
p507
F0.0010427528675703858
sS'tough'
p508
F0.0008342022940563086
sS'point'
p509
F0.0008342022940563086
sS'battery'
p510
F0.020855057351407715
sS'quality'
p511
F0.021480709071949947
sS'simply'
p512
F0.0008342022940563086
sS'though'
p513
F0.0016684045881126173
sS'decent'
p514
F0.004796663190823775
sS'due'
p515
F0.0008342022940563086
sS'been'
p516
F0.0016684045881126173
sS'mark'
p517
F0.0010427528675703858
sS'much'
p518
F0.0031282586027111575
sS'dont'
p519
F0.0008342022940563086
sS'expected'
p520
F0.0010427528675703858
sS'wait'
p521
F0.00020855057351407716
sS'hardly'
p522
F0.00020855057351407716
sS'location'
p523
F0.00020855057351407716
sS'compromises'
p524
F0.0006256517205422315
sS'received'
p525
F0.00020855057351407716
sS'offered'
p526
F0.0006256517205422315
sS'otg'
p527
F0.0008342022940563086
sS'photos'
p528
F0.0010427528675703858
sS'wake'
p529
F0.0006256517205422315
sS'angles'
p530
F0.001251303441084463
sS'graphics'
p531
F0.0006256517205422315
sS'installation'
p532
F0.00020855057351407716
sS'worked'
p533
F0.00020855057351407716
sS'those'
p534
F0.0006256517205422315
sS'case'
p535
F0.00020855057351407716
sS'save'
p536
F0.00020855057351407716
sS'launcher'
p537
F0.00020855057351407716
sS'selfie'
p538
F0.0008342022940563086
sS'grainy'
p539
F0.00020855057351407716
sS'budget'
p540
F0.0022940563086548487
sS'value'
p541
F0.0016684045881126173
sS'air'
p542
F0.00020855057351407716
sS'near'
p543
F0.00020855057351407716
sS'cracked'
p544
F0.00020855057351407716
sS'voice'
p545
F0.0008342022940563086
sS'guide'
p546
F0.00020855057351407716
sS'theres'
p547
F0.00020855057351407716
sS'aluminium'
p548
F0.0006256517205422315
sS'manually'
p549
F0.00020855057351407716
sS'almost'
p550
F0.0006256517205422315
sS'coating'
p551
F0.0006256517205422315
sS'accessories'
p552
F0.0008342022940563086
sS'heating'
p553
F0.003753910323253389
sS'hardware'
p554
F0.001251303441084463
sS'middle'
p555
F0.00020855057351407716
sS'draining'
p556
F0.00020855057351407716
sS'itself'
p557
F0.00020855057351407716
sS'im'
p558
F0.0008342022940563086
sS'dual'
p559
F0.0008342022940563086
sS'sar'
p560
F0.00020855057351407716
sS'ready'
p561
F0.00020855057351407716
sS'return'
p562
F0.00020855057351407716
sS'damaged'
p563
F0.00020855057351407716
sS'descent'
p564
F0.0006256517205422315
sS'pay'
p565
F0.00020855057351407716
sS'make'
p566
F0.00145985401459854
sS'same'
p567
F0.00020855057351407716
sS'drawback'
p568
F0.0008342022940563086
sS'speaker'
p569
F0.0020855057351407717
sS'waste'
p570
F0.00020855057351407716
sS'inch'
p571
F0.001251303441084463
sS'android'
p572
F0.0010427528675703858
sS'gets'
p573
F0.00020855057351407716
sS'difficult'
p574
F0.00020855057351407716
sS'week'
p575
F0.00020855057351407716
sS'finish'
p576
F0.0006256517205422315
sS'hang'
p577
F0.0010427528675703858
sS'speakers'
p578
F0.001251303441084463
sS'hand'
p579
F0.002502606882168926
sS'average'
p580
F0.002711157455683003
sS'running'
p581
F0.0008342022940563086
sS'edges'
p582
F0.00020855057351407716
sS'delicate'
p583
F0.00020855057351407716
sS'angle'
p584
F0.00020855057351407716
sS'strength'
p585
F0.0006256517205422315
sS'butter'
p586
F0.0006256517205422315
sS'drain'
p587
F0.00020855057351407716
sS'kept'
p588
F0.00020855057351407716
sS'center'
p589
F0.00020855057351407716
sS'charges'
p590
F0.00020855057351407716
sS'charger'
p591
F0.0006256517205422315
sS'colour'
p592
F0.00145985401459854
sS'lcd'
p593
F0.00020855057351407716
sS'person'
p594
F0.0006256517205422315
sS'severe'
p595
F0.00020855057351407716
sS'without'
p596
F0.00145985401459854
sS'very'
p597
F0.02794577685088634
sS'claims'
p598
F0.00020855057351407716
sS'model'
p599
F0.001251303441084463
sS'audio'
p600
F0.00145985401459854
sS'amazed'
p601
F0.0006256517205422315
sS'charged'
p602
F0.00020855057351407716
sS'rocker'
p603
F0.0006256517205422315
sS'outdoor'
p604
F0.0008342022940563086
sS'excessive'
p605
F0.00020855057351407716
sS'less'
p606
F0.00145985401459854
sS'captures'
p607
F0.00020855057351407716
sS'proximity'
p608
F0.0006256517205422315
sS'fingerprint'
p609
F0.003545359749739312
sS'competitive'
p610
F0.0006256517205422315
sS'not'
p611
F0.008342022940563087
sS'thanks'
p612
F0.001251303441084463
sS'immediately'
p613
F0.00020855057351407716
sS'switched'
p614
F0.00020855057351407716
sS'useful'
p615
F0.0008342022940563086
sS'speed'
p616
F0.002711157455683003
sS'coolpad'
p617
F0.001251303441084463
sS'vibration'
p618
F0.00020855057351407716
sS'seems'
p619
F0.00145985401459854
sS'had'
p620
F0.001251303441084463
sS'except'
p621
F0.001251303441084463
sS'signals'
p622
F0.00020855057351407716
sS'attractive'
p623
F0.0006256517205422315
sS'easy'
p624
F0.0016684045881126173
sS'crack'
p625
F0.00020855057351407716
sS'usage'
p626
F0.0006256517205422315
sS'has'
p627
F0.005422314911366006
sS'remaining'
p628
F0.00020855057351407716
sS'smart'
p629
F0.0010427528675703858
sS'take'
p630
F0.0008342022940563086
sS'grip'
p631
F0.0006256517205422315
sS'customers'
p632
F0.0006256517205422315
sS'around'
p633
F0.00020855057351407716
sS'big'
p634
F0.0010427528675703858
sS'showing'
p635
F0.00020855057351407716
sS'dark'
p636
F0.00020855057351407716
sS'game'
p637
F0.00020855057351407716
sS'appearing'
p638
F0.00020855057351407716
sS'bit'
p639
F0.001251303441084463
sS'glitches'
p640
F0.0006256517205422315
sS'disappointed'
p641
F0.0006256517205422315
sS'rear'
p642
F0.005005213764337852
sS'apart'
p643
F0.00020855057351407716
sS'crisp'
p644
F0.0016684045881126173
sS'like'
p645
F0.004796663190823775
sS'gift'
p646
F0.00020855057351407716
sS'vibrant'
p647
F0.0006256517205422315
sS'signal'
p648
F0.0008342022940563086
sS'zoom'
p649
F0.0008342022940563086
sS'facing'
p650
F0.00020855057351407716
sS'either'
p651
F0.00020855057351407716
sS'flickering'
p652
F0.00020855057351407716
sS'fully'
p653
F0.00020855057351407716
sS'output'
p654
F0.0010427528675703858
sS'works'
p655
F0.002711157455683003
sS'soft'
p656
F0.0010427528675703858
sS'audible'
p657
F0.00020855057351407716
sS'replacement'
p658
F0.00020855057351407716
sS'satisfactory'
p659
F0.0006256517205422315
sS'google'
p660
F0.00020855057351407716
sS'old'
p661
F0.00020855057351407716
sS'deal'
p662
F0.0006256517205422315
sS'people'
p663
F0.0006256517205422315
sS'absolutely'
p664
F0.0008342022940563086
sS'dead'
p665
F0.00020855057351407716
sS'tempered'
p666
F0.0006256517205422315
sS'daylight'
p667
F0.0008342022940563086
sS'palm'
p668
F0.0006256517205422315
sS'specified'
p669
F0.0006256517205422315
sS'images'
p670
F0.0010427528675703858
sS'home'
p671
F0.00020855057351407716
sS'provided'
p672
F0.0008342022940563086
sS'bottom'
p673
F0.00020855057351407716
sS'decision'
p674
F0.0006256517205422315
sS'normal'
p675
F0.0008342022940563086
sS'per'
p676
F0.00020855057351407716
sS'everything'
p677
F0.0022940563086548487
sS'does'
p678
F0.001251303441084463
sS'connecting'
p679
F0.00020855057351407716
sS'moderate'
p680
F0.001251303441084463
sS'blurry'
p681
F0.00020855057351407716
sS'core'
p682
F0.0008342022940563086
sS'particular'
p683
F0.00020855057351407716
sS'run'
p684
F0.00020855057351407716
sS'power'
p685
F0.0018769551616266945
sS'seconds'
p686
F0.00020855057351407716
sS'night'
p687
F0.0010427528675703858
sS'broken'
p688
F0.00020855057351407716
sS'although'
p689
F0.00020855057351407716
sS'stylish'
p690
F0.001251303441084463
sS'super'
p691
F0.005213764337851929
sS'panel'
p692
F0.0006256517205422315
sS'ok'
p693
F0.0018769551616266945
sS'anything'
p694
F0.0006256517205422315
sS'getting'
p695
F0.0010427528675703858
sS'goodmacro'
p696
F0.0006256517205422315
sS'months'
p697
F0.00020855057351407716
sS'hot'
p698
F0.0006256517205422315
sS'range'
p699
F0.0031282586027111575
sS'nothing'
p700
F0.0006256517205422315
sS'stand'
p701
F0.00020855057351407716
sS'lasting'
p702
F0.0008342022940563086
sS'backup'
p703
F0.0064650677789363925
sS'processor'
p704
F0.003545359749739312
sS'automatically'
p705
F0.00020855057351407716
sS'lags'
p706
F0.00291970802919708
sS'repair'
p707
F0.00020855057351407716
sS'discharging'
p708
F0.00020855057351407716
sS'image'
p709
F0.00020855057351407716
sS'within'
p710
F0.0006256517205422315
sS'headphone'
p711
F0.00020855057351407716
sS'down'
p712
F0.00020855057351407716
sS'complaints'
p713
F0.0010427528675703858
sS'guard'
p714
F0.00145985401459854
sS'doesnt'
p715
F0.001251303441084463
sS'heated'
p716
F0.0008342022940563086
sS'quickly'
p717
F0.00020855057351407716
sS'behaving'
p718
F0.00020855057351407716
sS'area'
p719
F0.00020855057351407716
sS'amazingly'
p720
F0.0008342022940563086
sS'support'
p721
F0.001251303441084463
sS'smoothly'
p722
F0.00145985401459854
sS'apps'
p723
F0.0016684045881126173
sS'fast'
p724
F0.007090719499478624
sS'custom'
p725
F0.00020855057351407716
sS'window'
p726
F0.00020855057351407716
sS'low'
p727
F0.0031282586027111575
sS'lot'
p728
F0.0008342022940563086
sS'biggest'
p729
F0.00020855057351407716
sS'damn'
p730
F0.00020855057351407716
sS'happy'
p731
F0.00145985401459854
sS'function'
p732
F0.00020855057351407716
sS'buy'
p733
F0.0016684045881126173
sS'complete'
p734
F0.00020855057351407716
sS'drains'
p735
F0.00020855057351407716
sS'memory'
p736
F0.0010427528675703858
sS'buttery'
p737
F0.001251303441084463
sS'delivery'
p738
F0.0016684045881126173
sS'heat'
p739
F0.0010427528675703858
sS'properly'
p740
F0.00020855057351407716
sS'hear'
p741
F0.00020855057351407716
sS'multitasking'
p742
F0.0016684045881126173
sS'line'
p743
F0.00020855057351407716
sS'ear'
p744
F0.0010427528675703858
sS'true'
p745
F0.00020855057351407716
sS'dull'
p746
F0.00020855057351407716
sS'hd'
p747
F0.0016684045881126173
sS'longer'
p748
F0.00020855057351407716
sS'reset'
p749
F0.00020855057351407716
sS'made'
p750
F0.0008342022940563086
sS'wise'
p751
F0.0008342022940563086
sS'evident'
p752
F0.00020855057351407716
sS'default'
p753
F0.00020855057351407716
sS'smooth'
p754
F0.007924921793534932
sS'flip'
p755
F0.0006256517205422315
sS'devices'
p756
F0.00020855057351407716
sS'par'
p757
F0.0006256517205422315
sS'crystal'
p758
F0.0008342022940563086
sS'back-up'
p759
F0.0006256517205422315
sS'ui'
p760
F0.004796663190823775
sS'dirty'
p761
F0.0006256517205422315
sS'continuously'
p762
F0.0006256517205422315
sS'problem'
p763
F0.0033368091762252345
sS'piece'
p764
F0.00020855057351407716
sS'minutes'
p765
F0.0006256517205422315
sS'display'
p766
F0.011053180396246089
sS'connect'
p767
F0.00020855057351407716
sS'sometimes'
p768
F0.00020855057351407716
sS'scanner'
p769
F0.0022940563086548487
sS'metal'
p770
F0.0010427528675703858
sS'handset'
p771
F0.00020855057351407716
sS'pic'
p772
F0.00020855057351407716
sS'life'
p773
F0.004171011470281543
sS'inr'
p774
F0.00020855057351407716
sS'water'
p775
F0.0010427528675703858
sS'proper'
p776
F0.00020855057351407716
sS'single'
p777
F0.00020855057351407716
sS'sometime'
p778
F0.0006256517205422315
sS'specially'
p779
F0.0006256517205422315
sS'again'
p780
F0.00020855057351407716
sS'compared'
p781
F0.00020855057351407716
sS'no'
p782
F0.012721584984358707
sS'nd'
p783
F0.0006256517205422315
sS'ringtone'
p784
F0.00020855057351407716
sS'application'
p785
F0.0008342022940563086
sS'setting'
p786
F0.00020855057351407716
sS'heats'
p787
F0.0006256517205422315
sS'clicks'
p788
F0.0008342022940563086
sS'nice'
p789
F0.00813347236704901
sS'poor'
p790
F0.0006256517205422315
sS'picture'
p791
F0.001251303441084463
sS'star'
p792
F0.0006256517205422315
sS'why'
p793
F0.00020855057351407716
sS'felt'
p794
F0.00020855057351407716
sS'problems'
p795
F0.0010427528675703858
sS'update'
p796
F0.00020855057351407716
sS'replace'
p797
F0.00020855057351407716
sS'brands'
p798
F0.0006256517205422315
sS'discharge'
p799
F0.00020855057351407716
sS'unlocking'
p800
F0.0006256517205422315
sS'earphones'
p801
F0.0008342022940563086
sS'opened'
p802
F0.0006256517205422315
sS'remote'
p803
F0.0006256517205422315
sS'faster'
p804
F0.0006256517205422315
sS'calls'
p805
F0.0006256517205422315
sS'phone'
p806
F0.030448383733055265
sS'contacts'
p807
F0.0006256517205422315
sS'compete'
p808
F0.0006256517205422315
sS'reception'
p809
F0.00020855057351407716
sS'time'
p810
F0.002502606882168926
sS'resolution'
p811
F0.00145985401459854
sS'having'
p812
F0.0008342022940563086
s.